target datalayout = "e-m:e-p270:32:32-p271:32:32-p272:64:64-i64:64-i128:128-f80:128-n8:16:32:64-S128"
target triple = "x86_64-pc-linux-gnu"

%"struct.ozz::animation::offline::RawSkeleton" = type { %"class.std::vector" }
%"class.std::vector" = type { %"struct.std::_Vector_base" }
%"struct.std::_Vector_base" = type { %"struct.std::_Vector_base<ozz::animation::offline::RawSkeleton::Joint, ozz::StdAllocator<ozz::animation::offline::RawSkeleton::Joint>>::_Vector_impl" }
%"struct.std::_Vector_base<ozz::animation::offline::RawSkeleton::Joint, ozz::StdAllocator<ozz::animation::offline::RawSkeleton::Joint>>::_Vector_impl" = type { %"struct.std::_Vector_base<ozz::animation::offline::RawSkeleton::Joint, ozz::StdAllocator<ozz::animation::offline::RawSkeleton::Joint>>::_Vector_impl_data" }
%"struct.std::_Vector_base<ozz::animation::offline::RawSkeleton::Joint, ozz::StdAllocator<ozz::animation::offline::RawSkeleton::Joint>>::_Vector_impl_data" = type { ptr, ptr, ptr }
%"struct.ozz::animation::offline::RawSkeleton::Joint" = type { %"class.std::vector", %"class.std::__cxx11::basic_string", %"struct.ozz::math::Transform" }
%"class.std::__cxx11::basic_string" = type { %"struct.std::__cxx11::basic_string<char, std::char_traits<char>, ozz::StdAllocator<char>>::_Alloc_hider", i64, %union.anon }
%"struct.std::__cxx11::basic_string<char, std::char_traits<char>, ozz::StdAllocator<char>>::_Alloc_hider" = type { ptr }
%union.anon = type { i64, [8 x i8] }
%"struct.ozz::math::Transform" = type { %"struct.ozz::math::Float3", %"struct.ozz::math::Quaternion", %"struct.ozz::math::Float3" }
%"struct.ozz::math::Quaternion" = type { float, float, float, float }
%"struct.ozz::math::Float3" = type { float, float, float }

; Function Attrs: mustprogress nounwind uwtable
define linkonce_odr dso_local void @_ZN3ozz12StdAllocatorINS_9animation7offline11RawSkeleton5JointEE10deallocateEPS4_m(ptr noundef nonnull align 1 dereferenceable(1) %0, ptr noundef %1, i64 noundef %2) #0 comdat align 2 personality ptr @__gxx_personality_v0 {
  %4 = alloca ptr, align 8
  %5 = alloca ptr, align 8
  %6 = alloca i64, align 8
  store ptr %0, ptr %4, align 8, !tbaa !26
  store ptr %1, ptr %5, align 8, !tbaa !31
  store i64 %2, ptr %6, align 8, !tbaa !42
  %7 = invoke noundef ptr @_ZN3ozz6memory17default_allocatorEv()
          to label %8 unwind label %14

8:                                                ; preds = %3
  %9 = load ptr, ptr %5, align 8, !tbaa !31
  %10 = load ptr, ptr %7, align 8, !tbaa !47
  %11 = getelementptr inbounds ptr, ptr %10, i64 3
  %12 = load ptr, ptr %11, align 8
  invoke void %12(ptr noundef nonnull align 8 dereferenceable(8) %7, ptr noundef %9)
          to label %13 unwind label %14

13:                                               ; preds = %8
  ret void

14:                                               ; preds = %8, %3
  %15 = landingpad { ptr, i32 }
          catch ptr null
  %16 = extractvalue { ptr, i32 } %15, 0
  call void @__clang_call_terminate(ptr %16) #9
  unreachable
}

; Function Attrs: mustprogress nounwind uwtable
define linkonce_odr dso_local void @_ZNSt16allocator_traitsIN3ozz12StdAllocatorINS0_9animation7offline11RawSkeleton5JointEEEE10deallocateERS6_PS5_m(ptr noundef nonnull align 1 dereferenceable(1) %0, ptr noundef %1, i64 noundef %2) #0 comdat align 2 {
  %4 = alloca ptr, align 8
  %5 = alloca ptr, align 8
  %6 = alloca i64, align 8
  store ptr %0, ptr %4, align 8, !tbaa !26
  store ptr %1, ptr %5, align 8, !tbaa !31
  store i64 %2, ptr %6, align 8, !tbaa !42
  %7 = load ptr, ptr %4, align 8, !tbaa !26
  %8 = load ptr, ptr %5, align 8, !tbaa !31
  %9 = load i64, ptr %6, align 8, !tbaa !42
  call void @_ZN3ozz12StdAllocatorINS_9animation7offline11RawSkeleton5JointEE10deallocateEPS4_m(ptr noundef nonnull align 1 dereferenceable(1) %7, ptr noundef %8, i64 noundef %9) #8
  ret void
}

; Function Attrs: mustprogress uwtable
define linkonce_odr dso_local void @_ZNSt16allocator_traitsIN3ozz12StdAllocatorINS0_9animation7offline11RawSkeleton5JointEEEE10_S_destroyIS6_S5_EEDTcldtfp_7destroyfp0_EERT_PT0_i(ptr noundef nonnull align 1 dereferenceable(1) %0, ptr noundef %1, i32 noundef %2) #1 comdat align 2 {
  %4 = alloca ptr, align 8
  %5 = alloca ptr, align 8
  %6 = alloca i32, align 4
  store ptr %0, ptr %4, align 8, !tbaa !26
  store ptr %1, ptr %5, align 8, !tbaa !31
  store i32 %2, ptr %6, align 4, !tbaa !19
  %7 = load ptr, ptr %4, align 8, !tbaa !26
  %8 = load ptr, ptr %5, align 8, !tbaa !31
  call void @_ZN3ozz12StdAllocatorINS_9animation7offline11RawSkeleton5JointEE7destroyIS4_EEvPT_(ptr noundef nonnull align 1 dereferenceable(1) %7, ptr noundef %8)
  ret void
}

; Function Attrs: mustprogress uwtable
define linkonce_odr dso_local void @_ZNSt12_Vector_baseIN3ozz9animation7offline11RawSkeleton5JointENS0_12StdAllocatorIS4_EEE13_M_deallocateEPS4_m(ptr noundef nonnull align 8 dereferenceable(24) %0, ptr noundef %1, i64 noundef %2) #1 comdat align 2 {
  %4 = alloca ptr, align 8
  %5 = alloca ptr, align 8
  %6 = alloca i64, align 8
  store ptr %0, ptr %4, align 8, !tbaa !22
  store ptr %1, ptr %5, align 8, !tbaa !31
  store i64 %2, ptr %6, align 8, !tbaa !42
  %7 = load ptr, ptr %4, align 8
  %8 = load ptr, ptr %5, align 8, !tbaa !31
  %9 = icmp ne ptr %8, null
  br i1 %9, label %10, label %14

10:                                               ; preds = %3
  %11 = getelementptr inbounds nuw %"struct.std::_Vector_base", ptr %7, i32 0, i32 0
  %12 = load ptr, ptr %5, align 8, !tbaa !31
  %13 = load i64, ptr %6, align 8, !tbaa !42
  call void @_ZNSt16allocator_traitsIN3ozz12StdAllocatorINS0_9animation7offline11RawSkeleton5JointEEEE10deallocateERS6_PS5_m(ptr noundef nonnull align 1 dereferenceable(1) %11, ptr noundef %12, i64 noundef %13)
  br label %14

14:                                               ; preds = %10, %3
  ret void
}

; Function Attrs: mustprogress uwtable
define linkonce_odr dso_local void @_ZNSt16allocator_traitsIN3ozz12StdAllocatorINS0_9animation7offline11RawSkeleton5JointEEEE7destroyIS5_EEvRS6_PT_(ptr noundef nonnull align 1 dereferenceable(1) %0, ptr noundef %1) #1 comdat align 2 {
  %3 = alloca ptr, align 8
  %4 = alloca ptr, align 8
  store ptr %0, ptr %3, align 8, !tbaa !26
  store ptr %1, ptr %4, align 8, !tbaa !31
  %5 = load ptr, ptr %3, align 8, !tbaa !26
  %6 = load ptr, ptr %4, align 8, !tbaa !31
  call void @_ZNSt16allocator_traitsIN3ozz12StdAllocatorINS0_9animation7offline11RawSkeleton5JointEEEE10_S_destroyIS6_S5_EEDTcldtfp_7destroyfp0_EERT_PT0_i(ptr noundef nonnull align 1 dereferenceable(1) %5, ptr noundef %6, i32 noundef 0)
  ret void
}

; Function Attrs: mustprogress nounwind uwtable
define linkonce_odr dso_local void @_ZNSt12_Vector_baseIN3ozz9animation7offline11RawSkeleton5JointENS0_12StdAllocatorIS4_EEED2Ev(ptr noundef nonnull align 8 dereferenceable(24) %0) unnamed_addr #0 comdat align 2 personality ptr @__gxx_personality_v0 {
  %2 = alloca ptr, align 8
  store ptr %0, ptr %2, align 8, !tbaa !22
  %3 = load ptr, ptr %2, align 8
  %4 = getelementptr inbounds nuw %"struct.std::_Vector_base", ptr %3, i32 0, i32 0
  %5 = getelementptr inbounds nuw %"struct.std::_Vector_base<ozz::animation::offline::RawSkeleton::Joint, ozz::StdAllocator<ozz::animation::offline::RawSkeleton::Joint>>::_Vector_impl_data", ptr %4, i32 0, i32 0
  %6 = load ptr, ptr %5, align 8, !tbaa !11
  %7 = getelementptr inbounds nuw %"struct.std::_Vector_base", ptr %3, i32 0, i32 0
  %8 = getelementptr inbounds nuw %"struct.std::_Vector_base<ozz::animation::offline::RawSkeleton::Joint, ozz::StdAllocator<ozz::animation::offline::RawSkeleton::Joint>>::_Vector_impl_data", ptr %7, i32 0, i32 2
  %9 = load ptr, ptr %8, align 8, !tbaa !30
  %10 = getelementptr inbounds nuw %"struct.std::_Vector_base", ptr %3, i32 0, i32 0
  %11 = getelementptr inbounds nuw %"struct.std::_Vector_base<ozz::animation::offline::RawSkeleton::Joint, ozz::StdAllocator<ozz::animation::offline::RawSkeleton::Joint>>::_Vector_impl_data", ptr %10, i32 0, i32 0
  %12 = load ptr, ptr %11, align 8, !tbaa !11
  %13 = ptrtoint ptr %9 to i64
  %14 = ptrtoint ptr %12 to i64
  %15 = sub i64 %13, %14
  %16 = sdiv exact i64 %15, 96
  invoke void @_ZNSt12_Vector_baseIN3ozz9animation7offline11RawSkeleton5JointENS0_12StdAllocatorIS4_EEE13_M_deallocateEPS4_m(ptr noundef nonnull align 8 dereferenceable(24) %3, ptr noundef %6, i64 noundef %16)
          to label %17 unwind label %18

17:                                               ; preds = %1
  ret void

18:                                               ; preds = %1
  %19 = landingpad { ptr, i32 }
          catch ptr null
  %20 = extractvalue { ptr, i32 } %19, 0
  call void @__clang_call_terminate(ptr %20) #9
  unreachable
}

; Function Attrs: mustprogress uwtable
define linkonce_odr dso_local void @_ZSt8_DestroyIPN3ozz9animation7offline11RawSkeleton5JointENS0_12StdAllocatorIS4_EEEvT_S8_RT0_(ptr noundef %0, ptr noundef %1, ptr noundef nonnull align 1 dereferenceable(1) %2) #1 comdat {
  %4 = alloca ptr, align 8
  %5 = alloca ptr, align 8
  %6 = alloca ptr, align 8
  store ptr %0, ptr %4, align 8, !tbaa !31
  store ptr %1, ptr %5, align 8, !tbaa !31
  store ptr %2, ptr %6, align 8, !tbaa !26
  br label %7

7:                                                ; preds = %14, %3
  %8 = load ptr, ptr %4, align 8, !tbaa !31
  %9 = load ptr, ptr %5, align 8, !tbaa !31
  %10 = icmp ne ptr %8, %9
  br i1 %10, label %11, label %17

11:                                               ; preds = %7
  %12 = load ptr, ptr %6, align 8, !tbaa !26
  %13 = load ptr, ptr %4, align 8, !tbaa !31
  call void @_ZNSt16allocator_traitsIN3ozz12StdAllocatorINS0_9animation7offline11RawSkeleton5JointEEEE7destroyIS5_EEvRS6_PT_(ptr noundef nonnull align 1 dereferenceable(1) %12, ptr noundef %13)
  br label %14

14:                                               ; preds = %11
  %15 = load ptr, ptr %4, align 8, !tbaa !31
  %16 = getelementptr inbounds nuw %"struct.ozz::animation::offline::RawSkeleton::Joint", ptr %15, i32 1
  store ptr %16, ptr %4, align 8, !tbaa !31
  br label %7, !llvm.loop !32

17:                                               ; preds = %7
  ret void
}

; Function Attrs: mustprogress nounwind uwtable
define linkonce_odr dso_local noundef nonnull align 1 dereferenceable(1) ptr @_ZNSt12_Vector_baseIN3ozz9animation7offline11RawSkeleton5JointENS0_12StdAllocatorIS4_EEE19_M_get_Tp_allocatorEv(ptr noundef nonnull align 8 dereferenceable(24) %0) #0 comdat align 2 {
  %2 = alloca ptr, align 8
  store ptr %0, ptr %2, align 8, !tbaa !22
  %3 = load ptr, ptr %2, align 8
  %4 = getelementptr inbounds nuw %"struct.std::_Vector_base", ptr %3, i32 0, i32 0
  ret ptr %4
}

; Function Attrs: mustprogress nounwind uwtable
define linkonce_odr dso_local void @_ZNSt6vectorIN3ozz9animation7offline11RawSkeleton5JointENS0_12StdAllocatorIS4_EEED2Ev(ptr noundef nonnull align 8 dereferenceable(24) %0) unnamed_addr #0 comdat align 2 personality ptr @__gxx_personality_v0 {
  %2 = alloca ptr, align 8
  store ptr %0, ptr %2, align 8, !tbaa !9
  %3 = load ptr, ptr %2, align 8
  %4 = getelementptr inbounds nuw %"struct.std::_Vector_base", ptr %3, i32 0, i32 0
  %5 = getelementptr inbounds nuw %"struct.std::_Vector_base<ozz::animation::offline::RawSkeleton::Joint, ozz::StdAllocator<ozz::animation::offline::RawSkeleton::Joint>>::_Vector_impl_data", ptr %4, i32 0, i32 0
  %6 = load ptr, ptr %5, align 8, !tbaa !11
  %7 = getelementptr inbounds nuw %"struct.std::_Vector_base", ptr %3, i32 0, i32 0
  %8 = getelementptr inbounds nuw %"struct.std::_Vector_base<ozz::animation::offline::RawSkeleton::Joint, ozz::StdAllocator<ozz::animation::offline::RawSkeleton::Joint>>::_Vector_impl_data", ptr %7, i32 0, i32 1
  %9 = load ptr, ptr %8, align 8, !tbaa !14
  %10 = call noundef nonnull align 1 dereferenceable(1) ptr @_ZNSt12_Vector_baseIN3ozz9animation7offline11RawSkeleton5JointENS0_12StdAllocatorIS4_EEE19_M_get_Tp_allocatorEv(ptr noundef nonnull align 8 dereferenceable(24) %3) #8
  invoke void @_ZSt8_DestroyIPN3ozz9animation7offline11RawSkeleton5JointENS0_12StdAllocatorIS4_EEEvT_S8_RT0_(ptr noundef %6, ptr noundef %9, ptr noundef nonnull align 1 dereferenceable(1) %10)
          to label %11 unwind label %12

11:                                               ; preds = %1
  call void @_ZNSt12_Vector_baseIN3ozz9animation7offline11RawSkeleton5JointENS0_12StdAllocatorIS4_EEED2Ev(ptr noundef nonnull align 8 dereferenceable(24) %3) #8
  ret void

12:                                               ; preds = %1
  %13 = landingpad { ptr, i32 }
          catch ptr null
  %14 = extractvalue { ptr, i32 } %13, 0
  call void @__clang_call_terminate(ptr %14) #9
  unreachable
}

; Function Attrs: mustprogress nounwind uwtable
define dso_local void @_ZN3ozz9animation7offline11RawSkeletonD2Ev(ptr noundef nonnull align 8 dereferenceable(24) %0) unnamed_addr #0 align 2 {
  %2 = alloca ptr, align 8
  store ptr %0, ptr %2, align 8, !tbaa !4
  %3 = load ptr, ptr %2, align 8
  %4 = getelementptr inbounds nuw %"struct.ozz::animation::offline::RawSkeleton", ptr %3, i32 0, i32 0
  call void @_ZNSt6vectorIN3ozz9animation7offline11RawSkeleton5JointENS0_12StdAllocatorIS4_EEED2Ev(ptr noundef nonnull align 8 dereferenceable(24) %4) #8
  ret void
}