; Function Attrs: mustprogress nounwind uwtable
define dso_local void @_ZN3ozz9animation7offline11RawSkeletonD2Ev(ptr noundef nonnull align 8 dereferenceable(24) %0) unnamed_addr #1 align 2 personality ptr @__gxx_personality_v0 {
  %2 = load ptr, ptr %0, align 8, !tbaa !4
  %3 = getelementptr inbounds nuw i8, ptr %0, i64 8
  %4 = load ptr, ptr %3, align 8, !tbaa !10
  %.not.i1.i = icmp eq ptr %2, %4
  br i1 %.not.i1.i, label %_ZSt8_DestroyIPN3ozz9animation7offline11RawSkeleton5JointENS0_12StdAllocatorIS4_EEEvT_S8_RT0_.exit.i, label %.noexc.i

.noexc.i:                                         ; preds = %1, %.noexc.i
  %.0.i2.i = phi ptr [ %5, %.noexc.i ], [ %2, %1 ]
  tail call void @_ZN3ozz12StdAllocatorINS_9animation7offline11RawSkeleton5JointEE7destroyIS4_EEvPT_(ptr noundef nonnull align 8 dereferenceable(24) %0, ptr noundef %.0.i2.i)
  %5 = getelementptr inbounds nuw i8, ptr %.0.i2.i, i64 96
  %.not.i.i = icmp eq ptr %5, %4
  br i1 %.not.i.i, label %_ZSt8_DestroyIPN3ozz9animation7offline11RawSkeleton5JointENS0_12StdAllocatorIS4_EEEvT_S8_RT0_.exit.loopexit.i, label %.noexc.i, !llvm.loop !11

_ZSt8_DestroyIPN3ozz9animation7offline11RawSkeleton5JointENS0_12StdAllocatorIS4_EEEvT_S8_RT0_.exit.loopexit.i: ; preds = %.noexc.i
  %.pre.i = load ptr, ptr %0, align 8, !tbaa !4
  br label %_ZSt8_DestroyIPN3ozz9animation7offline11RawSkeleton5JointENS0_12StdAllocatorIS4_EEEvT_S8_RT0_.exit.i

_ZSt8_DestroyIPN3ozz9animation7offline11RawSkeleton5JointENS0_12StdAllocatorIS4_EEEvT_S8_RT0_.exit.i: ; preds = %_ZSt8_DestroyIPN3ozz9animation7offline11RawSkeleton5JointENS0_12StdAllocatorIS4_EEEvT_S8_RT0_.exit.loopexit.i, %1
  %6 = phi ptr [ %.pre.i, %_ZSt8_DestroyIPN3ozz9animation7offline11RawSkeleton5JointENS0_12StdAllocatorIS4_EEEvT_S8_RT0_.exit.loopexit.i ], [ %2, %1 ]
  %.not.i.i.i = icmp eq ptr %6, null
  br i1 %.not.i.i.i, label %_ZNSt6vectorIN3ozz9animation7offline11RawSkeleton5JointENS0_12StdAllocatorIS4_EEED2Ev.exit, label %7

7:                                                ; preds = %_ZSt8_DestroyIPN3ozz9animation7offline11RawSkeleton5JointENS0_12StdAllocatorIS4_EEEvT_S8_RT0_.exit.i
  %8 = invoke noundef ptr @_ZN3ozz6memory17default_allocatorEv()
          to label %9 unwind label %13

9:                                                ; preds = %7
  %10 = load ptr, ptr %8, align 8, !tbaa !13
  %11 = getelementptr inbounds nuw i8, ptr %10, i64 24
  %12 = load ptr, ptr %11, align 8
  invoke void %12(ptr noundef nonnull align 8 dereferenceable(8) %8, ptr noundef nonnull %6)
          to label %_ZNSt6vectorIN3ozz9animation7offline11RawSkeleton5JointENS0_12StdAllocatorIS4_EEED2Ev.exit unwind label %13

13:                                               ; preds = %9, %7
  %14 = landingpad { ptr, i32 }
          catch ptr null
  %15 = extractvalue { ptr, i32 } %14, 0
  tail call void @__clang_call_terminate(ptr %15) #10
  unreachable

_ZNSt6vectorIN3ozz9animation7offline11RawSkeleton5JointENS0_12StdAllocatorIS4_EEED2Ev.exit: ; preds = %_ZSt8_DestroyIPN3ozz9animation7offline11RawSkeleton5JointENS0_12StdAllocatorIS4_EEEvT_S8_RT0_.exit.i, %9
  ret void
}